; Function Attrs: mustprogress nounwind uwtable
define hidden void @_ZN11G1NewTracer22report_evacuation_infoEP10G1EvacInfo(ptr nocapture noundef nonnull readnone align 8 dereferenceable(88) %0, ptr nocapture noundef readonly %1) local_unnamed_addr #0 align 2 {
  %3 = alloca %class.EventEvacuationInformation, align 8
  call void @llvm.lifetime.start.p0(i64 88, ptr nonnull %3)
  %4 = getelementptr inbounds i8, ptr %3, i64 8
  call void @llvm.memset.p0.i64(ptr noundef nonnull align 8 dereferenceable(11) %4, i8 0, i64 11, i1 false)
  %5 = load i8, ptr getelementptr inbounds (i8, ptr @_ZN15JfrEventSetting19_jvm_event_settingsE, i64 1265), align 1
  %.not.i.not.i = icmp eq i8 %5, 0
  br i1 %.not.i.not.i, label %_ZN11G1NewTracer26send_evacuation_info_eventEP10G1EvacInfo.exit, label %6

6:                                                ; preds = %2
  %7 = getelementptr inbounds i8, ptr %3, i64 18
  %8 = getelementptr inbounds i8, ptr %3, i64 17
  %9 = tail call noundef i64 @_ZN33FastUnorderedElapsedCounterSource3nowEv() #11
  store i64 %9, ptr %3, align 8
  store i8 1, ptr %8, align 1
  store i8 1, ptr %7, align 2
  %10 = tail call noundef i32 @_ZN4GCId7currentEv() #11
  %11 = getelementptr inbounds i8, ptr %3, i64 20
  store i32 %10, ptr %11, align 4
  %12 = load i32, ptr %1, align 8
  %13 = getelementptr inbounds i8, ptr %3, i64 24
  store i32 %12, ptr %13, align 8
  %14 = getelementptr inbounds i8, ptr %1, i64 8
  %15 = getelementptr inbounds i8, ptr %3, i64 32
  %16 = load <2 x i64>, ptr %14, align 8
  store <2 x i64> %16, ptr %15, align 8
  %17 = getelementptr inbounds i8, ptr %1, i64 4
  %18 = load i32, ptr %17, align 4
  %19 = getelementptr inbounds i8, ptr %3, i64 48
  store i32 %18, ptr %19, align 8
  %20 = getelementptr inbounds i8, ptr %1, i64 24
  %21 = load i64, ptr %20, align 8
  %22 = getelementptr inbounds i8, ptr %3, i64 56
  store i64 %21, ptr %22, align 8
  %23 = getelementptr inbounds i8, ptr %1, i64 32
  %24 = load i64, ptr %23, align 8
  %25 = add i64 %24, %21
  %26 = getelementptr inbounds i8, ptr %3, i64 64
  store i64 %25, ptr %26, align 8
  %27 = getelementptr inbounds i8, ptr %3, i64 72
  store i64 %24, ptr %27, align 8
  %28 = getelementptr inbounds i8, ptr %1, i64 40
  %29 = load i32, ptr %28, align 8
  %30 = getelementptr inbounds i8, ptr %3, i64 80
  store i32 %29, ptr %30, align 8
  call void @_ZN8JfrEventI26EventEvacuationInformationE6commitEv(ptr noundef nonnull align 8 dereferenceable(19) %3)
  br label %_ZN11G1NewTracer26send_evacuation_info_eventEP10G1EvacInfo.exit

_ZN11G1NewTracer26send_evacuation_info_eventEP10G1EvacInfo.exit: ; preds = %2, %6
  call void @llvm.lifetime.end.p0(i64 88, ptr nonnull %3)
  ret void
}